target datalayout = "e-m:e-p270:32:32-p271:32:32-p272:64:64-i64:64-i128:128-f80:128-n8:16:32:64-S128"
target triple = "x86_64-pc-linux-gnu"

; Function Attrs: nounwind sspstrong uwtable
define internal i64 @fun_si_cp50221_decoder(ptr noundef %0, ptr noundef %1, i64 noundef %2) #0 {
  %4 = alloca i64, align 8
  %5 = alloca ptr, align 8
  %6 = alloca ptr, align 8
  %7 = alloca i64, align 8
  %8 = alloca ptr, align 8
  %9 = alloca i32, align 4
  %10 = alloca i32, align 4
  store ptr %0, ptr %5, align 8, !tbaa !6
  store ptr %1, ptr %6, align 8, !tbaa !10
  store i64 %2, ptr %7, align 8, !tbaa !13
  call void @llvm.lifetime.start.p0(i64 8, ptr %8) #3
  %11 = load ptr, ptr %5, align 8, !tbaa !6
  store ptr %11, ptr %8, align 8, !tbaa !10
  call void @llvm.lifetime.start.p0(i64 4, ptr %9) #3
  %12 = load ptr, ptr %8, align 8, !tbaa !10
  %13 = load i8, ptr %12, align 1, !tbaa !12
  %14 = zext i8 %13 to i32
  switch i32 %14, label %112 [
    i32 0, label %15
    i32 3, label %29
    i32 1, label %42
    i32 2, label %68
  ]

15:                                               ; preds = %3
  %16 = load ptr, ptr %6, align 8, !tbaa !10
  %17 = getelementptr inbounds i8, ptr %16, i64 0
  %18 = load i8, ptr %17, align 1, !tbaa !12
  %19 = zext i8 %18 to i32
  %20 = icmp sle i32 161, %19
  br i1 %20, label %21, label %28

21:                                               ; preds = %15
  %22 = load ptr, ptr %6, align 8, !tbaa !10
  %23 = getelementptr inbounds i8, ptr %22, i64 0
  %24 = load i8, ptr %23, align 1, !tbaa !12
  %25 = zext i8 %24 to i32
  %26 = icmp sle i32 %25, 223
  br i1 %26, label %27, label %28

27:                                               ; preds = %21
  store i64 15, ptr %4, align 8
  store i32 1, ptr %10, align 4
  br label %113

28:                                               ; preds = %21, %15
  store i64 1, ptr %4, align 8
  store i32 1, ptr %10, align 4
  br label %113

29:                                               ; preds = %3
  %30 = load ptr, ptr %6, align 8, !tbaa !10
  %31 = getelementptr inbounds i8, ptr %30, i64 0
  %32 = load i8, ptr %31, align 1, !tbaa !12
  %33 = zext i8 %32 to i32
  %34 = and i32 %33, 127
  store i32 %34, ptr %9, align 4, !tbaa !15
  %35 = load i32, ptr %9, align 4, !tbaa !15
  %36 = icmp sle i32 33, %35
  br i1 %36, label %37, label %41

37:                                               ; preds = %29
  %38 = load i32, ptr %9, align 4, !tbaa !15
  %39 = icmp sle i32 %38, 95
  br i1 %39, label %40, label %41

40:                                               ; preds = %37
  store i64 15, ptr %4, align 8
  store i32 1, ptr %10, align 4
  br label %113

41:                                               ; preds = %37, %29
  br label %112

42:                                               ; preds = %3
  %43 = load ptr, ptr %6, align 8, !tbaa !10
  %44 = getelementptr inbounds i8, ptr %43, i64 0
  %45 = load i8, ptr %44, align 1, !tbaa !12
  %46 = zext i8 %45 to i32
  %47 = icmp sle i32 33, %46
  br i1 %47, label %48, label %54

48:                                               ; preds = %42
  %49 = load ptr, ptr %6, align 8, !tbaa !10
  %50 = getelementptr inbounds i8, ptr %49, i64 0
  %51 = load i8, ptr %50, align 1, !tbaa !12
  %52 = zext i8 %51 to i32
  %53 = icmp sle i32 %52, 40
  br i1 %53, label %66, label %54

54:                                               ; preds = %48, %42
  %55 = load ptr, ptr %6, align 8, !tbaa !10
  %56 = getelementptr inbounds i8, ptr %55, i64 0
  %57 = load i8, ptr %56, align 1, !tbaa !12
  %58 = zext i8 %57 to i32
  %59 = icmp sle i32 48, %58
  br i1 %59, label %60, label %67

60:                                               ; preds = %54
  %61 = load ptr, ptr %6, align 8, !tbaa !10
  %62 = getelementptr inbounds i8, ptr %61, i64 0
  %63 = load i8, ptr %62, align 1, !tbaa !12
  %64 = zext i8 %63 to i32
  %65 = icmp sle i32 %64, 116
  br i1 %65, label %66, label %67

66:                                               ; preds = %60, %48
  store i64 64, ptr %4, align 8
  store i32 1, ptr %10, align 4
  br label %113

67:                                               ; preds = %60, %54
  br label %112

68:                                               ; preds = %3
  %69 = load ptr, ptr %6, align 8, !tbaa !10
  %70 = getelementptr inbounds i8, ptr %69, i64 0
  %71 = load i8, ptr %70, align 1, !tbaa !12
  %72 = zext i8 %71 to i32
  %73 = icmp sle i32 33, %72
  br i1 %73, label %74, label %80

74:                                               ; preds = %68
  %75 = load ptr, ptr %6, align 8, !tbaa !10
  %76 = getelementptr inbounds i8, ptr %75, i64 0
  %77 = load i8, ptr %76, align 1, !tbaa !12
  %78 = zext i8 %77 to i32
  %79 = icmp sle i32 %78, 40
  br i1 %79, label %110, label %80

80:                                               ; preds = %74, %68
  %81 = load ptr, ptr %6, align 8, !tbaa !10
  %82 = getelementptr inbounds i8, ptr %81, i64 0
  %83 = load i8, ptr %82, align 1, !tbaa !12
  %84 = zext i8 %83 to i32
  %85 = icmp eq i32 %84, 45
  br i1 %85, label %110, label %86

86:                                               ; preds = %80
  %87 = load ptr, ptr %6, align 8, !tbaa !10
  %88 = getelementptr inbounds i8, ptr %87, i64 0
  %89 = load i8, ptr %88, align 1, !tbaa !12
  %90 = zext i8 %89 to i32
  %91 = icmp sle i32 48, %90
  br i1 %91, label %92, label %98

92:                                               ; preds = %86
  %93 = load ptr, ptr %6, align 8, !tbaa !10
  %94 = getelementptr inbounds i8, ptr %93, i64 0
  %95 = load i8, ptr %94, align 1, !tbaa !12
  %96 = zext i8 %95 to i32
  %97 = icmp sle i32 %96, 116
  br i1 %97, label %110, label %98

98:                                               ; preds = %92, %86
  %99 = load ptr, ptr %6, align 8, !tbaa !10
  %100 = getelementptr inbounds i8, ptr %99, i64 0
  %101 = load i8, ptr %100, align 1, !tbaa !12
  %102 = zext i8 %101 to i32
  %103 = icmp sle i32 121, %102
  br i1 %103, label %104, label %111

104:                                              ; preds = %98
  %105 = load ptr, ptr %6, align 8, !tbaa !10
  %106 = getelementptr inbounds i8, ptr %105, i64 0
  %107 = load i8, ptr %106, align 1, !tbaa !12
  %108 = zext i8 %107 to i32
  %109 = icmp sle i32 %108, 124
  br i1 %109, label %110, label %111

110:                                              ; preds = %104, %92, %80, %74
  store i64 64, ptr %4, align 8
  store i32 1, ptr %10, align 4
  br label %113

111:                                              ; preds = %104, %98
  br label %112

112:                                              ; preds = %3, %111, %67, %41
  store i64 7, ptr %4, align 8
  store i32 1, ptr %10, align 4
  br label %113

113:                                              ; preds = %112, %110, %66, %40, %28, %27
  call void @llvm.lifetime.end.p0(i64 4, ptr %9) #3
  call void @llvm.lifetime.end.p0(i64 8, ptr %8) #3
  %114 = load i64, ptr %4, align 8
  ret i64 %114
}