; Function Attrs: mustprogress nofree norecurse nosync nounwind sspstrong willreturn memory(argmem: read) uwtable
define internal range(i64 1, 65) i64 @fun_si_cp50221_decoder(ptr noundef readonly captures(none) %0, ptr noundef readonly captures(none) %1, i64 %2) #3 {
  %4 = load i8, ptr %0, align 1, !tbaa !6
  switch i8 %4, label %22 [
    i8 0, label %5
    i8 3, label %8
    i8 1, label %12
    i8 2, label %16
  ]

5:                                                ; preds = %3
  %6 = load i8, ptr %1, align 1, !tbaa !6
  %7 = add i8 %6, 95
  %or.cond25 = icmp ult i8 %7, 63
  %spec.select = select i1 %or.cond25, i64 15, i64 1
  br label %switch.lookup

8:                                                ; preds = %3
  %9 = load i8, ptr %1, align 1, !tbaa !6
  %10 = and i8 %9, 127
  %11 = add nsw i8 %10, -33
  %or.cond = icmp ult i8 %11, 63
  br i1 %or.cond, label %switch.lookup, label %22

12:                                               ; preds = %3
  %13 = load i8, ptr %1, align 1, !tbaa !6
  %14 = add i8 %13, -33
  %or.cond26 = icmp ult i8 %14, 8
  %15 = add i8 %13, -48
  %or.cond27 = icmp ult i8 %15, 69
  %or.cond32 = or i1 %or.cond26, %or.cond27
  br i1 %or.cond32, label %switch.lookup, label %22

16:                                               ; preds = %3
  %17 = load i8, ptr %1, align 1, !tbaa !6
  %switch.tableidx = add i8 %17, -33
  %18 = icmp ult i8 %switch.tableidx, 13
  br i1 %18, label %switch.hole_check, label %19

19:                                               ; preds = %switch.hole_check, %16
  %20 = add i8 %17, -48
  %or.cond29 = icmp ult i8 %20, 69
  %21 = add i8 %17, -121
  %or.cond30 = icmp ult i8 %21, 4
  %or.cond33 = or i1 %or.cond29, %or.cond30
  br i1 %or.cond33, label %switch.lookup, label %22

22:                                               ; preds = %19, %12, %8, %3
  br label %switch.lookup

switch.hole_check:                                ; preds = %16
  %switch.maskindex = zext nneg i8 %switch.tableidx to i16
  %switch.shifted = lshr i16 4351, %switch.maskindex
  %switch.lobit = trunc i16 %switch.shifted to i1
  br i1 %switch.lobit, label %switch.lookup, label %19

switch.lookup:                                    ; preds = %switch.hole_check, %5, %19, %12, %8, %22
  %.0 = phi i64 [ 7, %22 ], [ 15, %8 ], [ 64, %12 ], [ 64, %19 ], [ %spec.select, %5 ], [ 64, %switch.hole_check ]
  ret i64 %.0
}